target datalayout = "e-m:e-p270:32:32-p271:32:32-p272:64:64-i64:64-i128:128-f80:128-n8:16:32:64-S128"
target triple = "x86_64-pc-linux-gnu"

; Function Attrs: inlinehint mustprogress uwtable
define internal noundef double @_ZN8LightGBM6CommonL3PowIdEEdT_i(double noundef %0, i32 noundef %1) #6 {
  %3 = alloca double, align 8
  %4 = alloca double, align 8
  %5 = alloca i32, align 4
  store double %0, ptr %4, align 8, !tbaa !135
  store i32 %1, ptr %5, align 4, !tbaa !9
  %6 = load i32, ptr %5, align 4, !tbaa !9
  %7 = icmp slt i32 %6, 0
  br i1 %7, label %8, label %14

8:                                                ; preds = %2
  %9 = load double, ptr %4, align 8, !tbaa !135
  %10 = load i32, ptr %5, align 4, !tbaa !9
  %11 = sub nsw i32 0, %10
  %12 = call noundef double @_ZN8LightGBM6CommonL3PowIdEEdT_i(double noundef %9, i32 noundef %11)
  %13 = fdiv double 1.000000e+00, %12
  store double %13, ptr %3, align 8
  br label %49

14:                                               ; preds = %2
  %15 = load i32, ptr %5, align 4, !tbaa !9
  %16 = icmp eq i32 %15, 0
  br i1 %16, label %17, label %18

17:                                               ; preds = %14
  store double 1.000000e+00, ptr %3, align 8
  br label %49

18:                                               ; preds = %14
  %19 = load i32, ptr %5, align 4, !tbaa !9
  %20 = srem i32 %19, 2
  %21 = icmp eq i32 %20, 0
  br i1 %21, label %22, label %29

22:                                               ; preds = %18
  %23 = load double, ptr %4, align 8, !tbaa !135
  %24 = load double, ptr %4, align 8, !tbaa !135
  %25 = fmul double %23, %24
  %26 = load i32, ptr %5, align 4, !tbaa !9
  %27 = sdiv i32 %26, 2
  %28 = call noundef double @_ZN8LightGBM6CommonL3PowIdEEdT_i(double noundef %25, i32 noundef %27)
  store double %28, ptr %3, align 8
  br label %49

29:                                               ; preds = %18
  %30 = load i32, ptr %5, align 4, !tbaa !9
  %31 = srem i32 %30, 3
  %32 = icmp eq i32 %31, 0
  br i1 %32, label %33, label %42

33:                                               ; preds = %29
  %34 = load double, ptr %4, align 8, !tbaa !135
  %35 = load double, ptr %4, align 8, !tbaa !135
  %36 = fmul double %34, %35
  %37 = load double, ptr %4, align 8, !tbaa !135
  %38 = fmul double %36, %37
  %39 = load i32, ptr %5, align 4, !tbaa !9
  %40 = sdiv i32 %39, 3
  %41 = call noundef double @_ZN8LightGBM6CommonL3PowIdEEdT_i(double noundef %38, i32 noundef %40)
  store double %41, ptr %3, align 8
  br label %49

42:                                               ; preds = %29
  %43 = load double, ptr %4, align 8, !tbaa !135
  %44 = load double, ptr %4, align 8, !tbaa !135
  %45 = load i32, ptr %5, align 4, !tbaa !9
  %46 = sub nsw i32 %45, 1
  %47 = call noundef double @_ZN8LightGBM6CommonL3PowIdEEdT_i(double noundef %44, i32 noundef %46)
  %48 = fmul double %43, %47
  store double %48, ptr %3, align 8
  br label %49

49:                                               ; preds = %42, %33, %22, %17, %8
  %50 = load double, ptr %3, align 8
  ret double %50
}